target datalayout = "e-m:e-p270:32:32-p271:32:32-p272:64:64-i64:64-i128:128-f80:128-n8:16:32:64-S128"
target triple = "x86_64-pc-linux-gnu"

%struct.HWDevice = type { ptr, i32, ptr }

@nb_hw_devices = internal global i32 0, align 4
@hw_devices = internal global ptr null, align 8
@.str.12 = private unnamed_addr constant [5 x i8] c"%s%d\00", align 1

; Function Attrs: nounwind uwtable
define ptr @hw_device_get_by_name(ptr noundef %0) #0 {
  %2 = alloca ptr, align 8
  %3 = alloca ptr, align 8
  %4 = alloca i32, align 4
  %5 = alloca i32, align 4
  store ptr %0, ptr %3, align 8, !tbaa !20
  call void @llvm.lifetime.start.p0(i64 4, ptr %4) #5
  store i32 0, ptr %4, align 4, !tbaa !4
  br label %6

6:                                                ; preds = %28, %1
  %7 = load i32, ptr %4, align 4, !tbaa !4
  %8 = load i32, ptr @nb_hw_devices, align 4, !tbaa !4
  %9 = icmp slt i32 %7, %8
  br i1 %9, label %10, label %31

10:                                               ; preds = %6
  %11 = load ptr, ptr @hw_devices, align 8, !tbaa !11
  %12 = load i32, ptr %4, align 4, !tbaa !4
  %13 = sext i32 %12 to i64
  %14 = getelementptr inbounds ptr, ptr %11, i64 %13
  %15 = load ptr, ptr %14, align 8, !tbaa !8
  %16 = getelementptr inbounds nuw %struct.HWDevice, ptr %15, i32 0, i32 0
  %17 = load ptr, ptr %16, align 8, !tbaa !21
  %18 = load ptr, ptr %3, align 8, !tbaa !20
  %19 = call i32 @strcmp(ptr noundef %17, ptr noundef %18) #6
  %20 = icmp ne i32 %19, 0
  br i1 %20, label %27, label %21

21:                                               ; preds = %10
  %22 = load ptr, ptr @hw_devices, align 8, !tbaa !11
  %23 = load i32, ptr %4, align 4, !tbaa !4
  %24 = sext i32 %23 to i64
  %25 = getelementptr inbounds ptr, ptr %22, i64 %24
  %26 = load ptr, ptr %25, align 8, !tbaa !8
  store ptr %26, ptr %2, align 8
  store i32 1, ptr %5, align 4
  br label %32

27:                                               ; preds = %10
  br label %28

28:                                               ; preds = %27
  %29 = load i32, ptr %4, align 4, !tbaa !4
  %30 = add nsw i32 %29, 1
  store i32 %30, ptr %4, align 4, !tbaa !4
  br label %6, !llvm.loop !22

31:                                               ; preds = %6
  store ptr null, ptr %2, align 8
  store i32 1, ptr %5, align 4
  br label %32

32:                                               ; preds = %31, %21
  call void @llvm.lifetime.end.p0(i64 4, ptr %4) #5
  %33 = load ptr, ptr %2, align 8
  ret ptr %33
}

; Function Attrs: nounwind uwtable
define internal ptr @hw_device_default_name(i32 noundef %0) #0 {
  %2 = alloca ptr, align 8
  %3 = alloca i32, align 4
  %4 = alloca ptr, align 8
  %5 = alloca ptr, align 8
  %6 = alloca i64, align 8
  %7 = alloca i32, align 4
  %8 = alloca i32, align 4
  %9 = alloca i32, align 4
  store i32 %0, ptr %3, align 4, !tbaa !4
  call void @llvm.lifetime.start.p0(i64 8, ptr %4) #5
  %10 = load i32, ptr %3, align 4, !tbaa !4
  %11 = call ptr @av_hwdevice_get_type_name(i32 noundef %10)
  store ptr %11, ptr %4, align 8, !tbaa !20
  call void @llvm.lifetime.start.p0(i64 8, ptr %5) #5
  call void @llvm.lifetime.start.p0(i64 8, ptr %6) #5
  call void @llvm.lifetime.start.p0(i64 4, ptr %7) #5
  call void @llvm.lifetime.start.p0(i64 4, ptr %8) #5
  store i32 1000, ptr %8, align 4, !tbaa !4
  %12 = load ptr, ptr %4, align 8, !tbaa !20
  %13 = call i64 @strlen(ptr noundef %12) #6
  store i64 %13, ptr %6, align 8, !tbaa !26
  %14 = load i64, ptr %6, align 8, !tbaa !26
  %15 = add i64 %14, 4
  %16 = call noalias ptr @av_malloc(i64 noundef %15)
  store ptr %16, ptr %5, align 8, !tbaa !20
  %17 = load ptr, ptr %5, align 8, !tbaa !20
  %18 = icmp ne ptr %17, null
  br i1 %18, label %20, label %19

19:                                               ; preds = %1
  store ptr null, ptr %2, align 8
  store i32 1, ptr %9, align 4
  br label %47

20:                                               ; preds = %1
  store i32 0, ptr %7, align 4, !tbaa !4
  br label %21

21:                                               ; preds = %37, %20
  %22 = load i32, ptr %7, align 4, !tbaa !4
  %23 = load i32, ptr %8, align 4, !tbaa !4
  %24 = icmp slt i32 %22, %23
  br i1 %24, label %25, label %40

25:                                               ; preds = %21
  %26 = load ptr, ptr %5, align 8, !tbaa !20
  %27 = load i64, ptr %6, align 8, !tbaa !26
  %28 = add i64 %27, 4
  %29 = load ptr, ptr %4, align 8, !tbaa !20
  %30 = load i32, ptr %7, align 4, !tbaa !4
  %31 = call i32 (ptr, i64, ptr, ...) @snprintf(ptr noundef %26, i64 noundef %28, ptr noundef @.str.12, ptr noundef %29, i32 noundef %30) #5
  %32 = load ptr, ptr %5, align 8, !tbaa !20
  %33 = call ptr @hw_device_get_by_name(ptr noundef %32)
  %34 = icmp ne ptr %33, null
  br i1 %34, label %36, label %35

35:                                               ; preds = %25
  br label %40

36:                                               ; preds = %25
  br label %37

37:                                               ; preds = %36
  %38 = load i32, ptr %7, align 4, !tbaa !4
  %39 = add nsw i32 %38, 1
  store i32 %39, ptr %7, align 4, !tbaa !4
  br label %21, !llvm.loop !30

40:                                               ; preds = %35, %21
  %41 = load i32, ptr %7, align 4, !tbaa !4
  %42 = load i32, ptr %8, align 4, !tbaa !4
  %43 = icmp sge i32 %41, %42
  br i1 %43, label %44, label %45

44:                                               ; preds = %40
  call void @av_freep(ptr noundef %5)
  store ptr null, ptr %2, align 8
  store i32 1, ptr %9, align 4
  br label %47

45:                                               ; preds = %40
  %46 = load ptr, ptr %5, align 8, !tbaa !20
  store ptr %46, ptr %2, align 8
  store i32 1, ptr %9, align 4
  br label %47

47:                                               ; preds = %45, %44, %19
  call void @llvm.lifetime.end.p0(i64 4, ptr %8) #5
  call void @llvm.lifetime.end.p0(i64 4, ptr %7) #5
  call void @llvm.lifetime.end.p0(i64 8, ptr %6) #5
  call void @llvm.lifetime.end.p0(i64 8, ptr %5) #5
  call void @llvm.lifetime.end.p0(i64 8, ptr %4) #5
  %48 = load ptr, ptr %2, align 8
  ret ptr %48
}