; Function Attrs: nounwind uwtable
define internal fastcc ptr @hw_device_default_name(i32 noundef %0) unnamed_addr #4 {
  %2 = alloca ptr, align 8
  %3 = tail call ptr @av_hwdevice_get_type_name(i32 noundef %0) #8
  call void @llvm.lifetime.start.p0(i64 8, ptr nonnull %2) #8
  %4 = tail call i64 @strlen(ptr noundef nonnull dereferenceable(1) %3) #7
  %5 = add i64 %4, 4
  %6 = tail call noalias ptr @av_malloc(i64 noundef %5) #8
  store ptr %6, ptr %2, align 8, !tbaa !24
  %.not = icmp eq ptr %6, null
  br i1 %.not, label %.thread15, label %.preheader

.preheader:                                       ; preds = %1, %hw_device_get_by_name.exit
  %.01117 = phi i32 [ %17, %hw_device_get_by_name.exit ], [ 0, %1 ]
  %7 = tail call i32 (ptr, i64, ptr, ...) @snprintf(ptr noundef nonnull %6, i64 noundef %5, ptr noundef nonnull @.str.12, ptr noundef nonnull %3, i32 noundef %.01117) #8
  %8 = load i32, ptr @nb_hw_devices, align 4, !tbaa !4
  %9 = icmp sgt i32 %8, 0
  br i1 %9, label %.lr.ph.i, label %.thread15

.lr.ph.i:                                         ; preds = %.preheader
  %10 = load ptr, ptr @hw_devices, align 8, !tbaa !8
  %wide.trip.count.i = zext nneg i32 %8 to i64
  br label %12

11:                                               ; preds = %12
  %indvars.iv.next.i = add nuw nsw i64 %indvars.iv.i, 1
  %exitcond.not.i = icmp eq i64 %indvars.iv.next.i, %wide.trip.count.i
  br i1 %exitcond.not.i, label %.thread15, label %12, !llvm.loop !20

12:                                               ; preds = %11, %.lr.ph.i
  %indvars.iv.i = phi i64 [ 0, %.lr.ph.i ], [ %indvars.iv.next.i, %11 ]
  %13 = getelementptr inbounds nuw ptr, ptr %10, i64 %indvars.iv.i
  %14 = load ptr, ptr %13, align 8, !tbaa !12
  %15 = load ptr, ptr %14, align 8, !tbaa !21
  %16 = tail call i32 @strcmp(ptr noundef nonnull dereferenceable(1) %15, ptr noundef nonnull readonly dereferenceable(1) %6) #7
  %.not.i = icmp eq i32 %16, 0
  br i1 %.not.i, label %hw_device_get_by_name.exit, label %11

hw_device_get_by_name.exit:                       ; preds = %12
  %17 = add nuw nsw i32 %.01117, 1
  %exitcond.not = icmp eq i32 %17, 1000
  br i1 %exitcond.not, label %.thread, label %.preheader, !llvm.loop !28

.thread:                                          ; preds = %hw_device_get_by_name.exit
  call void @av_freep(ptr noundef nonnull %2) #8
  br label %.thread15

.thread15:                                        ; preds = %.preheader, %11, %1, %.thread
  %.0 = phi ptr [ null, %.thread ], [ null, %1 ], [ %6, %11 ], [ %6, %.preheader ]
  call void @llvm.lifetime.end.p0(i64 8, ptr nonnull %2) #8
  ret ptr %.0
}